target datalayout = "e-m:e-p270:32:32-p271:32:32-p272:64:64-i64:64-i128:128-f80:128-n8:16:32:64-S128"
target triple = "x86_64-pc-linux-gnu"

%"class.WasmEdge::ValType" = type { %union.anon }
%union.anon = type { %struct.anon }
%struct.anon = type { i8, i8, i8, i8, i32 }
%"class.WasmEdge::AST::GlobalType" = type <{ %"class.WasmEdge::ValType", i8, [3 x i8] }>

; Function Attrs: mustprogress nounwind uwtable
define linkonce_odr hidden noundef zeroext i8 @_ZNK8WasmEdge3AST10GlobalType9getValMutEv(ptr noundef nonnull align 4 dereferenceable(9) %0) #0 comdat align 2 {
  %2 = alloca ptr, align 8
  store ptr %0, ptr %2, align 8
  %3 = load ptr, ptr %2, align 8
  %4 = getelementptr inbounds %"class.WasmEdge::AST::GlobalType", ptr %3, i32 0, i32 1
  %5 = load i8, ptr %4, align 4
  ret i8 %5
}

; Function Attrs: mustprogress nounwind uwtable
define internal noundef ptr @_ZN12_GLOBAL__N_115fromGlobTypeCxtEPK26WasmEdge_GlobalTypeContext(ptr noundef %0) #0 {
  %2 = alloca ptr, align 8
  store ptr %0, ptr %2, align 8
  %3 = load ptr, ptr %2, align 8
  ret ptr %3
}

; Function Attrs: mustprogress nounwind uwtable
define i32 @WasmEdge_GlobalTypeGetMutability(ptr noundef %0) #0 {
  %2 = alloca i32, align 4
  %3 = alloca ptr, align 8
  store ptr %0, ptr %3, align 8
  %4 = load ptr, ptr %3, align 8
  %5 = icmp ne ptr %4, null
  br i1 %5, label %6, label %11

6:                                                ; preds = %1
  %7 = load ptr, ptr %3, align 8
  %8 = call noundef ptr @_ZN12_GLOBAL__N_115fromGlobTypeCxtEPK26WasmEdge_GlobalTypeContext(ptr noundef %7) #18
  %9 = call noundef zeroext i8 @_ZNK8WasmEdge3AST10GlobalType9getValMutEv(ptr noundef nonnull align 4 dereferenceable(9) %8) #18
  %10 = zext i8 %9 to i32
  store i32 %10, ptr %2, align 4
  br label %12

11:                                               ; preds = %1
  store i32 0, ptr %2, align 4
  br label %12

12:                                               ; preds = %11, %6
  %13 = load i32, ptr %2, align 4
  ret i32 %13
}